; Function Attrs: mustprogress nofree norecurse nosync nounwind willreturn memory(read, inaccessiblemem: none) uwtable
define noundef i64 @_ZN4base8internal16find_last_not_ofERKNS_16BasicStringPieceINSt7__cxx1112basic_stringItNS_20string16_char_traitsESaItEEEEEtm(ptr noundef nonnull readonly align 8 captures(none) dereferenceable(16) %0, i16 noundef zeroext %1, i64 noundef %2) local_unnamed_addr #5 {
  %4 = getelementptr inbounds nuw i8, ptr %0, i64 8
  %5 = load i64, ptr %4, align 8, !tbaa !38
  %6 = icmp eq i64 %5, 0
  br i1 %6, label %_ZN4base8internal17find_last_not_ofTINSt7__cxx1112basic_stringItNS_20string16_char_traitsESaItEEEEEmRKNS_16BasicStringPieceIT_EENS8_10value_typeEm.exit, label %7

7:                                                ; preds = %3
  %8 = add i64 %5, -1
  %.sroa.speculated.i = tail call i64 @llvm.umin.i64(i64 %8, i64 %2)
  %9 = load ptr, ptr %0, align 8, !tbaa !35
  %10 = getelementptr inbounds nuw i16, ptr %9, i64 %.sroa.speculated.i
  %11 = load i16, ptr %10, align 2, !tbaa !44
  %.not.not14.i = icmp eq i16 %11, %1
  br i1 %.not.not14.i, label %.lr.ph.i, label %_ZN4base8internal17find_last_not_ofTINSt7__cxx1112basic_stringItNS_20string16_char_traitsESaItEEEEEmRKNS_16BasicStringPieceIT_EENS8_10value_typeEm.exit

.lr.ph.i:                                         ; preds = %7, %13
  %.0915.i = phi i64 [ %14, %13 ], [ %.sroa.speculated.i, %7 ]
  %12 = icmp eq i64 %.0915.i, 0
  br i1 %12, label %_ZN4base8internal17find_last_not_ofTINSt7__cxx1112basic_stringItNS_20string16_char_traitsESaItEEEEEmRKNS_16BasicStringPieceIT_EENS8_10value_typeEm.exit, label %13

13:                                               ; preds = %.lr.ph.i
  %14 = add i64 %.0915.i, -1
  %15 = getelementptr inbounds nuw i16, ptr %9, i64 %14
  %16 = load i16, ptr %15, align 2, !tbaa !44
  %.not.not.i = icmp eq i16 %16, %1
  br i1 %.not.not.i, label %.lr.ph.i, label %_ZN4base8internal17find_last_not_ofTINSt7__cxx1112basic_stringItNS_20string16_char_traitsESaItEEEEEmRKNS_16BasicStringPieceIT_EENS8_10value_typeEm.exit, !llvm.loop !59

_ZN4base8internal17find_last_not_ofTINSt7__cxx1112basic_stringItNS_20string16_char_traitsESaItEEEEEmRKNS_16BasicStringPieceIT_EENS8_10value_typeEm.exit: ; preds = %.lr.ph.i, %13, %3, %7
  %.010.i = phi i64 [ -1, %3 ], [ %.sroa.speculated.i, %7 ], [ %14, %13 ], [ -1, %.lr.ph.i ]
  ret i64 %.010.i
}